target datalayout = "e-m:e-p270:32:32-p271:32:32-p272:64:64-i64:64-i128:128-f80:128-n8:16:32:64-S128"
target triple = "x86_64-pc-linux-gnu"

%struct.stbir__contributors = type { i32, i32 }
%struct.__mm_loadl_epi64_struct = type { i64 }
%struct.__loadu_ps = type { <4 x float> }
%struct.__mm_store_ss_struct = type { float }

; Function Attrs: alwaysinline nounwind uwtable
define internal void @_mm_store_ss(ptr noundef %0, <4 x float> noundef %1) #13 {
  %3 = alloca ptr, align 8
  %4 = alloca <4 x float>, align 16
  store ptr %0, ptr %3, align 8
  store <4 x float> %1, ptr %4, align 16
  %5 = load <4 x float>, ptr %4, align 16
  %6 = extractelement <4 x float> %5, i32 0
  %7 = load ptr, ptr %3, align 8
  %8 = getelementptr inbounds nuw %struct.__mm_store_ss_struct, ptr %7, i32 0, i32 0
  store float %6, ptr %8, align 1
  ret void
}

; Function Attrs: alwaysinline nounwind uwtable
define internal <4 x float> @_mm_add_ss(<4 x float> noundef %0, <4 x float> noundef %1) #13 {
  %3 = alloca <4 x float>, align 16
  %4 = alloca <4 x float>, align 16
  store <4 x float> %0, ptr %3, align 16
  store <4 x float> %1, ptr %4, align 16
  %5 = load <4 x float>, ptr %4, align 16
  %6 = extractelement <4 x float> %5, i32 0
  %7 = load <4 x float>, ptr %3, align 16
  %8 = extractelement <4 x float> %7, i32 0
  %9 = fadd float %8, %6
  %10 = load <4 x float>, ptr %3, align 16
  %11 = insertelement <4 x float> %10, float %9, i32 0
  store <4 x float> %11, ptr %3, align 16
  %12 = load <4 x float>, ptr %3, align 16
  ret <4 x float> %12
}

; Function Attrs: alwaysinline nounwind uwtable
define internal <2 x i64> @_mm_castps_si128(<4 x float> noundef %0) #13 {
  %2 = alloca <4 x float>, align 16
  store <4 x float> %0, ptr %2, align 16
  %3 = load <4 x float>, ptr %2, align 16
  %4 = bitcast <4 x float> %3 to <2 x i64>
  ret <2 x i64> %4
}

; Function Attrs: alwaysinline nounwind uwtable
define internal <4 x float> @_mm_castsi128_ps(<2 x i64> noundef %0) #13 {
  %2 = alloca <2 x i64>, align 16
  store <2 x i64> %0, ptr %2, align 16
  %3 = load <2 x i64>, ptr %2, align 16
  %4 = bitcast <2 x i64> %3 to <4 x float>
  ret <4 x float> %4
}

; Function Attrs: alwaysinline nounwind uwtable
define internal <2 x i64> @_mm_loadl_epi64(ptr noundef %0) #13 {
  %2 = alloca ptr, align 8
  %3 = alloca <2 x i64>, align 16
  store ptr %0, ptr %2, align 8
  %4 = load ptr, ptr %2, align 8
  %5 = getelementptr inbounds nuw %struct.__mm_loadl_epi64_struct, ptr %4, i32 0, i32 0
  %6 = load i64, ptr %5, align 1
  %7 = insertelement <2 x i64> poison, i64 %6, i32 0
  %8 = insertelement <2 x i64> %7, i64 0, i32 1
  store <2 x i64> %8, ptr %3, align 16
  %9 = load <2 x i64>, ptr %3, align 16
  ret <2 x i64> %9
}

; Function Attrs: alwaysinline nounwind uwtable
define internal <4 x float> @_mm_add_ps(<4 x float> noundef %0, <4 x float> noundef %1) #13 {
  %3 = alloca <4 x float>, align 16
  %4 = alloca <4 x float>, align 16
  store <4 x float> %0, ptr %3, align 16
  store <4 x float> %1, ptr %4, align 16
  %5 = load <4 x float>, ptr %3, align 16
  %6 = load <4 x float>, ptr %4, align 16
  %7 = fadd <4 x float> %5, %6
  ret <4 x float> %7
}

; Function Attrs: alwaysinline nounwind uwtable
define internal <4 x float> @_mm_mul_ps(<4 x float> noundef %0, <4 x float> noundef %1) #13 {
  %3 = alloca <4 x float>, align 16
  %4 = alloca <4 x float>, align 16
  store <4 x float> %0, ptr %3, align 16
  store <4 x float> %1, ptr %4, align 16
  %5 = load <4 x float>, ptr %3, align 16
  %6 = load <4 x float>, ptr %4, align 16
  %7 = fmul <4 x float> %5, %6
  ret <4 x float> %7
}

; Function Attrs: alwaysinline nounwind uwtable
define internal <4 x float> @_mm_loadu_ps(ptr noundef %0) #13 {
  %2 = alloca ptr, align 8
  store ptr %0, ptr %2, align 8
  %3 = load ptr, ptr %2, align 8
  %4 = getelementptr inbounds nuw %struct.__loadu_ps, ptr %3, i32 0, i32 0
  %5 = load <4 x float>, ptr %4, align 1
  ret <4 x float> %5
}

; Function Attrs: nounwind uwtable
define internal void @stbir__horizontal_gather_1_channels_with_10_coeffs(ptr noundef %0, i32 noundef %1, ptr noundef %2, ptr noundef %3, ptr noundef %4, i32 noundef %5) #12 {
  %7 = alloca ptr, align 8
  %8 = alloca i32, align 4
  %9 = alloca ptr, align 8
  %10 = alloca ptr, align 8
  %11 = alloca ptr, align 8
  %12 = alloca i32, align 4
  %13 = alloca ptr, align 8
  %14 = alloca ptr, align 8
  %15 = alloca ptr, align 8
  %16 = alloca ptr, align 8
  %17 = alloca <4 x float>, align 16
  %18 = alloca <4 x float>, align 16
  %19 = alloca <4 x float>, align 16
  store ptr %0, ptr %7, align 8
  store i32 %1, ptr %8, align 4
  store ptr %2, ptr %9, align 8
  store ptr %3, ptr %10, align 8
  store ptr %4, ptr %11, align 8
  store i32 %5, ptr %12, align 4
  call void @llvm.lifetime.start.p0(i64 8, ptr %13) #19
  %20 = load ptr, ptr %7, align 8
  %21 = load i32, ptr %8, align 4
  %22 = mul i32 %21, 1
  %23 = zext i32 %22 to i64
  %24 = getelementptr inbounds nuw float, ptr %20, i64 %23
  store ptr %24, ptr %13, align 8
  call void @llvm.lifetime.start.p0(i64 8, ptr %14) #19
  %25 = load ptr, ptr %7, align 8
  store ptr %25, ptr %14, align 8
  br label %26

26:                                               ; preds = %94, %6
  call void @llvm.lifetime.start.p0(i64 8, ptr %15) #19
  %27 = load ptr, ptr %9, align 8
  %28 = load ptr, ptr %10, align 8
  %29 = getelementptr inbounds nuw %struct.stbir__contributors, ptr %28, i32 0, i32 0
  %30 = load i32, ptr %29, align 4
  %31 = mul nsw i32 %30, 1
  %32 = sext i32 %31 to i64
  %33 = getelementptr inbounds float, ptr %27, i64 %32
  store ptr %33, ptr %15, align 8
  call void @llvm.lifetime.start.p0(i64 8, ptr %16) #19
  %34 = load ptr, ptr %11, align 8
  store ptr %34, ptr %16, align 8
  call void @llvm.lifetime.start.p0(i64 16, ptr %17) #19
  call void @llvm.lifetime.start.p0(i64 16, ptr %18) #19
  %35 = load ptr, ptr %15, align 8
  call void asm sideeffect "", "r,~{dirflag},~{fpsr},~{flags}"(ptr %35) #19, !srcloc !518
  %36 = load ptr, ptr %16, align 8
  %37 = call <4 x float> @_mm_loadu_ps(ptr noundef %36)
  store <4 x float> %37, ptr %18, align 16
  %38 = load <4 x float>, ptr %18, align 16
  %39 = load ptr, ptr %15, align 8
  %40 = call <4 x float> @_mm_loadu_ps(ptr noundef %39)
  %41 = call <4 x float> @_mm_mul_ps(<4 x float> noundef %38, <4 x float> noundef %40)
  store <4 x float> %41, ptr %17, align 16
  %42 = load ptr, ptr %15, align 8
  call void asm sideeffect "", "r,~{dirflag},~{fpsr},~{flags}"(ptr %42) #19, !srcloc !519
  %43 = load ptr, ptr %16, align 8
  %44 = getelementptr inbounds float, ptr %43, i64 4
  %45 = call <4 x float> @_mm_loadu_ps(ptr noundef %44)
  store <4 x float> %45, ptr %18, align 16
  %46 = load <4 x float>, ptr %17, align 16
  %47 = load <4 x float>, ptr %18, align 16
  %48 = load ptr, ptr %15, align 8
  %49 = getelementptr inbounds float, ptr %48, i64 4
  %50 = call <4 x float> @_mm_loadu_ps(ptr noundef %49)
  %51 = call <4 x float> @_mm_mul_ps(<4 x float> noundef %47, <4 x float> noundef %50)
  %52 = call <4 x float> @_mm_add_ps(<4 x float> noundef %46, <4 x float> noundef %51)
  store <4 x float> %52, ptr %17, align 16
  call void @llvm.lifetime.start.p0(i64 16, ptr %19) #19
  %53 = load ptr, ptr %16, align 8
  %54 = getelementptr inbounds float, ptr %53, i64 8
  %55 = call <2 x i64> @_mm_loadl_epi64(ptr noundef %54)
  %56 = call <4 x float> @_mm_castsi128_ps(<2 x i64> noundef %55)
  store <4 x float> %56, ptr %18, align 16
  %57 = load ptr, ptr %15, align 8
  %58 = getelementptr inbounds float, ptr %57, i64 8
  %59 = call <2 x i64> @_mm_loadl_epi64(ptr noundef %58)
  %60 = call <4 x float> @_mm_castsi128_ps(<2 x i64> noundef %59)
  store <4 x float> %60, ptr %19, align 16
  %61 = load <4 x float>, ptr %17, align 16
  %62 = load <4 x float>, ptr %19, align 16
  %63 = load <4 x float>, ptr %18, align 16
  %64 = call <4 x float> @_mm_mul_ps(<4 x float> noundef %62, <4 x float> noundef %63)
  %65 = call <4 x float> @_mm_add_ps(<4 x float> noundef %61, <4 x float> noundef %64)
  store <4 x float> %65, ptr %17, align 16
  call void @llvm.lifetime.end.p0(i64 16, ptr %19) #19
  %66 = load <4 x float>, ptr %17, align 16
  %67 = call <2 x i64> @_mm_castps_si128(<4 x float> noundef %66)
  %68 = bitcast <2 x i64> %67 to <4 x i32>
  %69 = shufflevector <4 x i32> %68, <4 x i32> poison, <4 x i32> <i32 2, i32 3, i32 0, i32 1>
  %70 = bitcast <4 x i32> %69 to <2 x i64>
  %71 = call <4 x float> @_mm_castsi128_ps(<2 x i64> noundef %70)
  store <4 x float> %71, ptr %18, align 16
  %72 = load <4 x float>, ptr %17, align 16
  %73 = load <4 x float>, ptr %18, align 16
  %74 = call <4 x float> @_mm_add_ps(<4 x float> noundef %72, <4 x float> noundef %73)
  store <4 x float> %74, ptr %17, align 16
  %75 = load <4 x float>, ptr %17, align 16
  %76 = call <2 x i64> @_mm_castps_si128(<4 x float> noundef %75)
  %77 = bitcast <2 x i64> %76 to <4 x i32>
  %78 = shufflevector <4 x i32> %77, <4 x i32> poison, <4 x i32> <i32 1, i32 2, i32 3, i32 0>
  %79 = bitcast <4 x i32> %78 to <2 x i64>
  %80 = call <4 x float> @_mm_castsi128_ps(<2 x i64> noundef %79)
  store <4 x float> %80, ptr %18, align 16
  %81 = load <4 x float>, ptr %17, align 16
  %82 = load <4 x float>, ptr %18, align 16
  %83 = call <4 x float> @_mm_add_ss(<4 x float> noundef %81, <4 x float> noundef %82)
  store <4 x float> %83, ptr %17, align 16
  %84 = load ptr, ptr %14, align 8
  %85 = load <4 x float>, ptr %17, align 16
  call void @_mm_store_ss(ptr noundef %84, <4 x float> noundef %85)
  %86 = load i32, ptr %12, align 4
  %87 = load ptr, ptr %11, align 8
  %88 = sext i32 %86 to i64
  %89 = getelementptr inbounds float, ptr %87, i64 %88
  store ptr %89, ptr %11, align 8
  %90 = load ptr, ptr %10, align 8
  %91 = getelementptr inbounds nuw %struct.stbir__contributors, ptr %90, i32 1
  store ptr %91, ptr %10, align 8
  %92 = load ptr, ptr %14, align 8
  %93 = getelementptr inbounds float, ptr %92, i64 1
  store ptr %93, ptr %14, align 8
  call void @llvm.lifetime.end.p0(i64 16, ptr %18) #19
  call void @llvm.lifetime.end.p0(i64 16, ptr %17) #19
  call void @llvm.lifetime.end.p0(i64 8, ptr %16) #19
  call void @llvm.lifetime.end.p0(i64 8, ptr %15) #19
  br label %94

94:                                               ; preds = %26
  %95 = load ptr, ptr %14, align 8
  %96 = load ptr, ptr %13, align 8
  %97 = icmp ult ptr %95, %96
  br i1 %97, label %26, label %98, !llvm.loop !520

98:                                               ; preds = %94
  call void @llvm.lifetime.end.p0(i64 8, ptr %14) #19
  call void @llvm.lifetime.end.p0(i64 8, ptr %13) #19
  ret void
}