; Function Attrs: nounwind uwtable
define internal void @stbir__horizontal_gather_1_channels_with_10_coeffs(ptr noundef writeonly captures(address) %0, i32 noundef %1, ptr noundef %2, ptr noundef readonly captures(none) %3, ptr noundef readonly captures(none) %4, i32 noundef %5) #22 {
  %7 = zext i32 %1 to i64
  %8 = getelementptr inbounds nuw float, ptr %0, i64 %7
  %9 = sext i32 %5 to i64
  br label %10

10:                                               ; preds = %10, %6
  %.034 = phi ptr [ %0, %6 ], [ %39, %10 ]
  %.033 = phi ptr [ %4, %6 ], [ %37, %10 ]
  %.0 = phi ptr [ %3, %6 ], [ %38, %10 ]
  %11 = load i32, ptr %.0, align 4
  %12 = sext i32 %11 to i64
  %13 = getelementptr inbounds float, ptr %2, i64 %12
  tail call void asm sideeffect "", "r,~{dirflag},~{fpsr},~{flags}"(ptr %13) #54, !srcloc !478
  %14 = load <4 x float>, ptr %.033, align 1
  %15 = load <4 x float>, ptr %13, align 1
  %16 = fmul <4 x float> %14, %15
  tail call void asm sideeffect "", "r,~{dirflag},~{fpsr},~{flags}"(ptr nonnull %13) #54, !srcloc !479
  %17 = getelementptr inbounds nuw i8, ptr %.033, i64 16
  %18 = load <4 x float>, ptr %17, align 1
  %19 = getelementptr inbounds nuw i8, ptr %13, i64 16
  %20 = load <4 x float>, ptr %19, align 1
  %21 = fmul <4 x float> %18, %20
  %22 = fadd <4 x float> %16, %21
  %23 = getelementptr inbounds nuw i8, ptr %.033, i64 32
  %24 = load i64, ptr %23, align 1
  %25 = insertelement <2 x i64> <i64 poison, i64 0>, i64 %24, i64 0
  %26 = bitcast <2 x i64> %25 to <4 x float>
  %27 = getelementptr inbounds nuw i8, ptr %13, i64 32
  %28 = load i64, ptr %27, align 1
  %29 = insertelement <2 x i64> <i64 poison, i64 0>, i64 %28, i64 0
  %30 = bitcast <2 x i64> %29 to <4 x float>
  %31 = fmul <4 x float> %26, %30
  %32 = fadd <4 x float> %22, %31
  %33 = shufflevector <4 x float> %32, <4 x float> poison, <4 x i32> <i32 2, i32 3, i32 poison, i32 poison>
  %34 = fadd <4 x float> %32, %33
  %shift = shufflevector <4 x float> %34, <4 x float> poison, <4 x i32> <i32 1, i32 poison, i32 poison, i32 poison>
  %35 = fadd <4 x float> %34, %shift
  %36 = extractelement <4 x float> %35, i64 0
  store float %36, ptr %.034, align 1
  %37 = getelementptr inbounds float, ptr %.033, i64 %9
  %38 = getelementptr inbounds nuw i8, ptr %.0, i64 8
  %39 = getelementptr inbounds nuw i8, ptr %.034, i64 4
  %40 = icmp ult ptr %39, %8
  br i1 %40, label %10, label %41, !llvm.loop !480

41:                                               ; preds = %10
  ret void
}